target datalayout = "e-m:e-p270:32:32-p271:32:32-p272:64:64-i64:64-i128:128-f80:128-n8:16:32:64-S128"
target triple = "x86_64-pc-linux-gnu"

; Function Attrs: nounwind uwtable
define dso_local i32 @getInputFileType(ptr noundef %0) #0 {
  %2 = alloca i32, align 4
  %3 = alloca ptr, align 8
  store ptr %0, ptr %3, align 8, !tbaa !5
  %4 = load ptr, ptr %3, align 8, !tbaa !5
  %5 = call i32 @fileIsManifest(ptr noundef %4)
  %6 = icmp ne i32 %5, 0
  br i1 %6, label %7, label %8

7:                                                ; preds = %1
  store i32 2, ptr %2, align 4
  br label %14

8:                                                ; preds = %1
  %9 = load ptr, ptr %3, align 8, !tbaa !5
  %10 = call i32 @fileIsRDB(ptr noundef %9)
  %11 = icmp ne i32 %10, 0
  br i1 %11, label %12, label %13

12:                                               ; preds = %8
  store i32 1, ptr %2, align 4
  br label %14

13:                                               ; preds = %8
  store i32 0, ptr %2, align 4
  br label %14

14:                                               ; preds = %13, %12, %7
  %15 = load i32, ptr %2, align 4
  ret i32 %15
}