; Function Attrs: nounwind uwtable
define dso_local range(i32 0, 3) i32 @getInputFileType(ptr noundef %0) local_unnamed_addr #4 {
  %2 = tail call i32 @fileIsManifest(ptr noundef %0)
  %.not = icmp eq i32 %2, 0
  br i1 %.not, label %3, label %5

3:                                                ; preds = %1
  %4 = tail call i32 @fileIsRDB(ptr noundef %0)
  br label %5

5:                                                ; preds = %3, %1
  %.0 = phi i32 [ 2, %1 ], [ %4, %3 ]
  ret i32 %.0
}